target datalayout = "e-m:e-p270:32:32-p271:32:32-p272:64:64-i64:64-i128:128-f80:128-n8:16:32:64-S128"
target triple = "x86_64-pc-linux-gnu"

%struct.expert_field = type { i32, i32 }

@hf_dcom_hresult = internal global i32 0, align 4
@ei_dcom_hresult_expert = internal global %struct.expert_field zeroinitializer, align 4
@.str.127 = private unnamed_addr constant [12 x i8] c"Hresult: %s\00", align 1
@.str.128 = private unnamed_addr constant [15 x i8] c"Unknown (0x%x)\00", align 1
@.str.129 = private unnamed_addr constant [25 x i8] c"HResult[%u]: %s (0x%08x)\00", align 1
@.str.130 = private unnamed_addr constant [8 x i8] c"Unknown\00", align 1

; Function Attrs: nounwind uwtable
define i32 @dissect_dcom_indexed_HRESULT(ptr noundef %0, i32 noundef %1, ptr noundef %2, ptr noundef %3, ptr noundef %4, ptr noundef %5, ptr noundef %6, i32 noundef %7) #0 {
  %9 = alloca ptr, align 8
  %10 = alloca i32, align 4
  %11 = alloca ptr, align 8
  %12 = alloca ptr, align 8
  %13 = alloca ptr, align 8
  %14 = alloca ptr, align 8
  %15 = alloca ptr, align 8
  %16 = alloca i32, align 4
  %17 = alloca i32, align 4
  %18 = alloca ptr, align 8
  store ptr %0, ptr %9, align 8
  store i32 %1, ptr %10, align 4
  store ptr %2, ptr %11, align 8
  store ptr %3, ptr %12, align 8
  store ptr %4, ptr %13, align 8
  store ptr %5, ptr %14, align 8
  store ptr %6, ptr %15, align 8
  store i32 %7, ptr %16, align 4
  store ptr null, ptr %18, align 8
  %19 = load ptr, ptr %9, align 8
  %20 = load i32, ptr %10, align 4
  %21 = load ptr, ptr %11, align 8
  %22 = load ptr, ptr %13, align 8
  %23 = load ptr, ptr %14, align 8
  %24 = load i32, ptr @hf_dcom_hresult, align 4
  %25 = call i32 @dissect_ndr_uint32(ptr noundef %19, i32 noundef %20, ptr noundef %21, ptr noundef null, ptr noundef %22, ptr noundef %23, i32 noundef %24, ptr noundef %17)
  store i32 %25, ptr %10, align 4
  %26 = load ptr, ptr %12, align 8
  %27 = icmp ne ptr %26, null
  br i1 %27, label %28, label %40

28:                                               ; preds = %8
  %29 = load ptr, ptr %12, align 8
  %30 = load i32, ptr @hf_dcom_hresult, align 4
  %31 = load ptr, ptr %9, align 8
  %32 = load i32, ptr %10, align 4
  %33 = sub i32 %32, 4
  %34 = load i32, ptr %17, align 4
  %35 = load i32, ptr %16, align 4
  %36 = load i32, ptr %17, align 4
  %37 = call ptr @val_to_str_const(i32 noundef %36, ptr noundef @dcom_hresult_vals, ptr noundef @.str.130)
  %38 = load i32, ptr %17, align 4
  %39 = call ptr (ptr, i32, ptr, i32, i32, i32, ptr, ...) @proto_tree_add_uint_format(ptr noundef %29, i32 noundef %30, ptr noundef %31, i32 noundef %33, i32 noundef 4, i32 noundef %34, ptr noundef @.str.129, i32 noundef %35, ptr noundef %37, i32 noundef %38)
  store ptr %39, ptr %18, align 8
  br label %40

40:                                               ; preds = %28, %8
  %41 = load i32, ptr %17, align 4
  %42 = and i32 %41, -2147483648
  %43 = icmp ne i32 %42, 0
  br i1 %43, label %44, label %50

44:                                               ; preds = %40
  %45 = load ptr, ptr %11, align 8
  %46 = load ptr, ptr %18, align 8
  %47 = load i32, ptr %17, align 4
  %48 = call ptr @val_to_str(i32 noundef %47, ptr noundef @dcom_hresult_vals, ptr noundef @.str.128)
  %49 = call ptr (ptr, ptr, ptr, ptr, ...) @expert_add_info_format(ptr noundef %45, ptr noundef %46, ptr noundef @ei_dcom_hresult_expert, ptr noundef @.str.127, ptr noundef %48)
  br label %50

50:                                               ; preds = %44, %40
  %51 = load ptr, ptr %15, align 8
  %52 = icmp ne ptr %51, null
  br i1 %52, label %53, label %56

53:                                               ; preds = %50
  %54 = load i32, ptr %17, align 4
  %55 = load ptr, ptr %15, align 8
  store i32 %54, ptr %55, align 4
  br label %56

56:                                               ; preds = %53, %50
  %57 = load i32, ptr %10, align 4
  ret i32 %57
}