; Function Attrs: nounwind uwtable
define i32 @dissect_dcom_indexed_HRESULT(ptr noundef %0, i32 noundef %1, ptr noundef %2, ptr noundef %3, ptr noundef %4, ptr noundef %5, ptr noundef writeonly %6, i32 noundef %7) local_unnamed_addr #1 {
  %9 = alloca i32, align 4
  %10 = load i32, ptr @hf_dcom_hresult, align 4
  %11 = call i32 @dissect_ndr_uint32(ptr noundef %0, i32 noundef %1, ptr noundef %2, ptr noundef null, ptr noundef %4, ptr noundef %5, i32 noundef %10, ptr noundef nonnull %9) #11
  %.not = icmp eq ptr %3, null
  br i1 %.not, label %19, label %12

12:                                               ; preds = %8
  %13 = load i32, ptr @hf_dcom_hresult, align 4
  %14 = add i32 %11, -4
  %15 = load i32, ptr %9, align 4
  %16 = call ptr @val_to_str_const(i32 noundef %15, ptr noundef nonnull @dcom_hresult_vals, ptr noundef nonnull @.str.130) #11
  %17 = load i32, ptr %9, align 4
  %18 = call ptr (ptr, i32, ptr, i32, i32, i32, ptr, ...) @proto_tree_add_uint_format(ptr noundef nonnull %3, i32 noundef %13, ptr noundef %0, i32 noundef %14, i32 noundef 4, i32 noundef %15, ptr noundef nonnull @.str.129, i32 noundef %7, ptr noundef %16, i32 noundef %17) #11
  br label %19

19:                                               ; preds = %12, %8
  %.0 = phi ptr [ %18, %12 ], [ null, %8 ]
  %20 = load i32, ptr %9, align 4
  %.not16 = icmp sgt i32 %20, -1
  br i1 %.not16, label %24, label %21

21:                                               ; preds = %19
  %22 = call ptr @val_to_str(i32 noundef %20, ptr noundef nonnull @dcom_hresult_vals, ptr noundef nonnull @.str.128) #11
  %23 = call ptr (ptr, ptr, ptr, ptr, ...) @expert_add_info_format(ptr noundef %2, ptr noundef %.0, ptr noundef nonnull @ei_dcom_hresult_expert, ptr noundef nonnull @.str.127, ptr noundef %22) #11
  br label %24

24:                                               ; preds = %21, %19
  %.not17 = icmp eq ptr %6, null
  br i1 %.not17, label %27, label %25

25:                                               ; preds = %24
  %26 = load i32, ptr %9, align 4
  store i32 %26, ptr %6, align 4
  br label %27

27:                                               ; preds = %25, %24
  ret i32 %11
}